target datalayout = "e-m:e-p270:32:32-p271:32:32-p272:64:64-i64:64-i128:128-f80:128-n8:16:32:64-S128"
target triple = "x86_64-pc-linux-gnu"

%struct.RecoverGlobal = type { ptr, ptr }
%struct.sqlite3_file = type { ptr }
%struct.sqlite3_io_methods = type { i32, ptr, ptr, ptr, ptr, ptr, ptr, ptr, ptr, ptr, ptr, ptr, ptr, ptr, ptr, ptr, ptr, ptr, ptr }

@recover_g = internal global %struct.RecoverGlobal zeroinitializer, align 8

; Function Attrs: nounwind uwtable
define internal void @recoverVfsShmBarrier(ptr noundef %0) #0 {
  %2 = alloca ptr, align 8
  store ptr %0, ptr %2, align 8, !tbaa !268
  %3 = load ptr, ptr %2, align 8, !tbaa !268
  %4 = getelementptr inbounds nuw %struct.sqlite3_file, ptr %3, i32 0, i32 0
  %5 = load ptr, ptr %4, align 8, !tbaa !278
  %6 = icmp eq ptr %5, @recover_methods
  br i1 %6, label %7, label %19

7:                                                ; preds = %1
  %8 = load ptr, ptr @recover_g, align 8, !tbaa !1033
  %9 = load ptr, ptr %2, align 8, !tbaa !268
  %10 = getelementptr inbounds nuw %struct.sqlite3_file, ptr %9, i32 0, i32 0
  store ptr %8, ptr %10, align 8, !tbaa !278
  %11 = load ptr, ptr %2, align 8, !tbaa !268
  %12 = getelementptr inbounds nuw %struct.sqlite3_file, ptr %11, i32 0, i32 0
  %13 = load ptr, ptr %12, align 8, !tbaa !278
  %14 = getelementptr inbounds nuw %struct.sqlite3_io_methods, ptr %13, i32 0, i32 15
  %15 = load ptr, ptr %14, align 8, !tbaa !296
  %16 = load ptr, ptr %2, align 8, !tbaa !268
  call void %15(ptr noundef %16)
  %17 = load ptr, ptr %2, align 8, !tbaa !268
  %18 = getelementptr inbounds nuw %struct.sqlite3_file, ptr %17, i32 0, i32 0
  store ptr @recover_methods, ptr %18, align 8, !tbaa !278
  br label %26

19:                                               ; preds = %1
  %20 = load ptr, ptr %2, align 8, !tbaa !268
  %21 = getelementptr inbounds nuw %struct.sqlite3_file, ptr %20, i32 0, i32 0
  %22 = load ptr, ptr %21, align 8, !tbaa !278
  %23 = getelementptr inbounds nuw %struct.sqlite3_io_methods, ptr %22, i32 0, i32 15
  %24 = load ptr, ptr %23, align 8, !tbaa !296
  %25 = load ptr, ptr %2, align 8, !tbaa !268
  call void %24(ptr noundef %25)
  br label %26

26:                                               ; preds = %19, %7
  ret void
}