; Function Attrs: nounwind uwtable
define internal void @recoverVfsShmBarrier(ptr noundef %0) #2 {
  %2 = load ptr, ptr %0, align 8, !tbaa !310
  %3 = icmp eq ptr %2, @recover_methods
  br i1 %3, label %4, label %8

4:                                                ; preds = %1
  %5 = load ptr, ptr @recover_g.0, align 8, !tbaa !351
  store ptr %5, ptr %0, align 8, !tbaa !310
  %6 = getelementptr inbounds nuw i8, ptr %5, i64 120
  %7 = load ptr, ptr %6, align 8, !tbaa !327
  tail call void %7(ptr noundef nonnull %0) #43
  store ptr @recover_methods, ptr %0, align 8, !tbaa !310
  br label %11

8:                                                ; preds = %1
  %9 = getelementptr inbounds nuw i8, ptr %2, i64 120
  %10 = load ptr, ptr %9, align 8, !tbaa !327
  tail call void %10(ptr noundef nonnull %0) #43
  br label %11

11:                                               ; preds = %8, %4
  ret void
}